target datalayout = "e-m:e-p270:32:32-p271:32:32-p272:64:64-i64:64-i128:128-f80:128-n8:16:32:64-S128"
target triple = "x86_64-pc-linux-gnu"

%struct.timespec = type { i64, i64 }

@.str.7 = private unnamed_addr constant [13 x i8] c"/proc/uptime\00", align 1
@.str.8 = private unnamed_addr constant [4 x i8] c"%lf\00", align 1

; Function Attrs: nounwind uwtable
define dso_local i32 @uv_uptime(ptr noundef %0) #0 {
  %2 = alloca i32, align 4
  %3 = alloca ptr, align 8
  %4 = alloca %struct.timespec, align 8
  %5 = alloca [128 x i8], align 16
  %6 = alloca i32, align 4
  store ptr %0, ptr %3, align 8
  call void @llvm.lifetime.start.p0(i64 16, ptr %4) #12
  call void @llvm.lifetime.start.p0(i64 128, ptr %5) #12
  %7 = getelementptr inbounds [128 x i8], ptr %5, i64 0, i64 0
  %8 = call i32 @uv__slurp(ptr noundef @.str.7, ptr noundef %7, i64 noundef 128)
  %9 = icmp eq i32 0, %8
  br i1 %9, label %10, label %17

10:                                               ; preds = %1
  %11 = getelementptr inbounds [128 x i8], ptr %5, i64 0, i64 0
  %12 = load ptr, ptr %3, align 8
  %13 = call i32 (ptr, ptr, ...) @sscanf(ptr noundef %11, ptr noundef @.str.8, ptr noundef %12) #12
  %14 = icmp eq i32 1, %13
  br i1 %14, label %15, label %16

15:                                               ; preds = %10
  store i32 0, ptr %2, align 4
  store i32 1, ptr %6, align 4
  br label %29

16:                                               ; preds = %10
  br label %17

17:                                               ; preds = %16, %1
  %18 = call i32 @clock_gettime(i32 noundef 7, ptr noundef %4) #12
  %19 = icmp ne i32 %18, 0
  br i1 %19, label %20, label %24

20:                                               ; preds = %17
  %21 = call ptr @__errno_location() #14
  %22 = load i32, ptr %21, align 4
  %23 = sub nsw i32 0, %22
  store i32 %23, ptr %2, align 4
  store i32 1, ptr %6, align 4
  br label %29

24:                                               ; preds = %17
  %25 = getelementptr inbounds nuw %struct.timespec, ptr %4, i32 0, i32 0
  %26 = load i64, ptr %25, align 8
  %27 = sitofp i64 %26 to double
  %28 = load ptr, ptr %3, align 8
  store double %27, ptr %28, align 8
  store i32 0, ptr %2, align 4
  store i32 1, ptr %6, align 4
  br label %29

29:                                               ; preds = %24, %20, %15
  call void @llvm.lifetime.end.p0(i64 128, ptr %5) #12
  call void @llvm.lifetime.end.p0(i64 16, ptr %4) #12
  %30 = load i32, ptr %2, align 4
  ret i32 %30
}