; Function Attrs: nounwind uwtable
define dso_local range(i32 -2147483647, -2147483648) i32 @uv_uptime(ptr noundef %0) local_unnamed_addr #0 {
  %2 = alloca %struct.timespec, align 8
  %3 = alloca [128 x i8], align 16
  call void @llvm.lifetime.start.p0(i64 16, ptr nonnull %2) #17
  call void @llvm.lifetime.start.p0(i64 128, ptr nonnull %3) #17
  %4 = call i32 @uv__slurp(ptr noundef nonnull @.str.7, ptr noundef nonnull %3, i64 noundef 128) #17
  %5 = icmp eq i32 %4, 0
  br i1 %5, label %6, label %9

6:                                                ; preds = %1
  %7 = call i32 (ptr, ptr, ...) @sscanf(ptr noundef nonnull %3, ptr noundef nonnull @.str.8, ptr noundef %0) #17
  %8 = icmp eq i32 %7, 1
  br i1 %8, label %18, label %9

9:                                                ; preds = %6, %1
  %10 = call i32 @clock_gettime(i32 noundef 7, ptr noundef nonnull %2) #17
  %.not = icmp eq i32 %10, 0
  br i1 %.not, label %15, label %11

11:                                               ; preds = %9
  %12 = tail call ptr @__errno_location() #19
  %13 = load i32, ptr %12, align 4
  %14 = sub nsw i32 0, %13
  br label %18

15:                                               ; preds = %9
  %16 = load i64, ptr %2, align 8
  %17 = sitofp i64 %16 to double
  store double %17, ptr %0, align 8
  br label %18

18:                                               ; preds = %6, %15, %11
  %.0 = phi i32 [ %14, %11 ], [ 0, %15 ], [ 0, %6 ]
  call void @llvm.lifetime.end.p0(i64 128, ptr nonnull %3) #17
  call void @llvm.lifetime.end.p0(i64 16, ptr nonnull %2) #17
  ret i32 %.0
}